target datalayout = "e-m:e-p270:32:32-p271:32:32-p272:64:64-i64:64-i128:128-f80:128-n8:16:32:64-S128"
target triple = "x86_64-pc-linux-gnu"

@uncommitted_enum_values = internal global ptr null, align 8

; Function Attrs: nounwind uwtable
define dso_local zeroext i1 @EnumUncommitted(i32 noundef %0) #0 {
  %2 = alloca i1, align 1
  %3 = alloca i32, align 4
  %4 = alloca i8, align 1
  %5 = alloca i32, align 4
  store i32 %0, ptr %3, align 4
  call void @llvm.lifetime.start.p0(i64 1, ptr %4) #7
  %6 = load ptr, ptr @uncommitted_enum_values, align 8
  %7 = icmp eq ptr %6, null
  br i1 %7, label %8, label %9

8:                                                ; preds = %1
  store i1 false, ptr %2, align 1
  store i32 1, ptr %5, align 4
  br label %14

9:                                                ; preds = %1
  %10 = load ptr, ptr @uncommitted_enum_values, align 8
  %11 = call ptr @hash_search(ptr noundef %10, ptr noundef %3, i32 noundef 0, ptr noundef %4)
  %12 = load i8, ptr %4, align 1, !range !11, !noundef !12
  %13 = trunc i8 %12 to i1
  store i1 %13, ptr %2, align 1
  store i32 1, ptr %5, align 4
  br label %14

14:                                               ; preds = %9, %8
  call void @llvm.lifetime.end.p0(i64 1, ptr %4) #7
  %15 = load i1, ptr %2, align 1
  ret i1 %15
}