; Function Attrs: nounwind uwtable
define dso_local zeroext i1 @EnumUncommitted(i32 noundef %0) local_unnamed_addr #0 {
  %2 = alloca i32, align 4
  %3 = alloca i8, align 1
  store i32 %0, ptr %2, align 4
  call void @llvm.lifetime.start.p0(i64 1, ptr nonnull %3) #10
  %4 = load ptr, ptr @uncommitted_enum_values, align 8
  %5 = icmp eq ptr %4, null
  br i1 %5, label %10, label %6

6:                                                ; preds = %1
  %7 = call ptr @hash_search(ptr noundef nonnull %4, ptr noundef nonnull %2, i32 noundef 0, ptr noundef nonnull %3) #10
  %8 = load i8, ptr %3, align 1, !range !13, !noundef !14
  %9 = trunc nuw i8 %8 to i1
  br label %10

10:                                               ; preds = %1, %6
  %.0 = phi i1 [ %9, %6 ], [ false, %1 ]
  call void @llvm.lifetime.end.p0(i64 1, ptr nonnull %3) #10
  ret i1 %.0
}